Certificate:
    Data:
        Version: 3 (0x2)
        Serial Number: 3 (0x3)
        Signature Algorithm: ecdsa-with-SHA256
        Issuer: C=US, O=Google, OU=Enterprise, CN=Enterprise Root CA
        Validity
            Not Before: Jul  6 13:54:38 2024 GMT
            Not After : Jul  6 13:54:38 2034 GMT
        Subject: C=US, O=Google, OU=Enterprise, CN=alice-cert.domain.com
        Subject Public Key Info:
            Public Key Algorithm: id-ecPublicKey
                Public-Key: (384 bit)
                pub:
                    04:32:a6:10:3e:7e:3c:36:8b:38:c1:8b:fd:43:6e:
                    19:9d:53:b1:9d:97:01:fc:90:0b:27:9a:c9:f3:e9:
                    90:04:23:54:a6:18:73:ea:fa:9f:86:53:90:7a:93:
                    1c:44:51:5f:47:20:af:4d:2a:b5:07:9a:0a:b9:ee:
                    73:0a:f2:15:11:50:d8:2f:64:ed:60:e2:59:b7:34:
                    23:a6:c3:18:96:76:1a:54:57:07:9b:8f:d1:08:91:
                    7a:39:84:68:c0:ab:4c
                ASN1 OID: secp384r1
                NIST CURVE: P-384
        X509v3 extensions:
            X509v3 Key Usage: critical
                Digital Signature
            X509v3 Basic Constraints: 
                CA:FALSE
            X509v3 Extended Key Usage: 
                TLS Web Client Authentication
            X509v3 Subject Key Identifier: 
                88:00:33:66:30:31:F8:0F:A3:4F:23:E1:F3:B8:1D:28:F1:B4:B9:03
            X509v3 Authority Key Identifier: 
                36:F0:A3:5D:CB:80:0C:9E:33:95:5C:AC:0C:F0:7F:E0:6F:B7:80:B9
            Authority Information Access: 
                CA Issuers - URI:http://pki.esodemoapp2.com/ca/root-ca.cer
            X509v3 CRL Distribution Points: 
                Full Name:
                  URI:http://pki.esodemoapp2.com/ca/root-ca.crl
    Signature Algorithm: ecdsa-with-SHA256
    Signature Value:
        30:65:02:30:66:de:d2:35:0a:b9:23:93:5a:59:14:9e:b6:89:
        32:5a:f7:97:0e:82:57:3f:e4:32:e7:56:94:b5:1f:76:34:60:
        53:14:33:1d:27:e2:9a:bf:90:24:f8:0f:49:6a:e9:30:02:31:
        00:cf:f7:f9:82:9c:95:0e:c1:c5:3a:92:20:03:e7:9b:96:81:
        28:50:73:89:81:84:13:07:f0:41:32:4b:11:83:96:8f:b2:c5:
        47:bd:21:16:71:7c:a6:85:71:f4:34:18:7a
-----BEGIN CERTIFICATE-----
MIICxjCCAkygAwIBAgIBAzAKBggqhkjOPQQDAjBQMQswCQYDVQQGEwJVUzEPMA0G
A1UECgwGR29vZ2xlMRMwEQYDVQQLDApFbnRlcnByaXNlMRswGQYDVQQDDBJFbnRl
cnByaXNlIFJvb3QgQ0EwHhcNMjQwNzA2MTM1NDM4WhcNMzQwNzA2MTM1NDM4WjBT
MQswCQYDVQQGEwJVUzEPMA0GA1UECgwGR29vZ2xlMRMwEQYDVQQLDApFbnRlcnBy
aXNlMR4wHAYDVQQDDBVhbGljZS1jZXJ0LmRvbWFpbi5jb20wdjAQBgcqhkjOPQIB
BgUrgQQAIgNiAAQyphA+fjw2izjBi/1DbhmdU7GdlwH8kAsnmsnz6ZAEI1SmGHPq
+p+GU5B6kxxEUV9HIK9NKrUHmgq57nMK8hURUNgvZO1g4lm3NCOmwxiWdhpUVweb
j9EIkXo5hGjAq0yjgfYwgfMwDgYDVR0PAQH/BAQDAgeAMAkGA1UdEwQCMAAwEwYD
VR0lBAwwCgYIKwYBBQUHAwIwHQYDVR0OBBYEFIgAM2YwMfgPo08j4fO4HSjxtLkD
MB8GA1UdIwQYMBaAFDbwo13LgAyeM5VcrAzwf+Bvt4C5MEUGCCsGAQUFBwEBBDkw
NzA1BggrBgEFBQcwAoYpaHR0cDovL3BraS5lc29kZW1vYXBwMi5jb20vY2Evcm9v
dC1jYS5jZXIwOgYDVR0fBDMwMTAvoC2gK4YpaHR0cDovL3BraS5lc29kZW1vYXBw
Mi5jb20vY2Evcm9vdC1jYS5jcmwwCgYIKoZIzj0EAwIDaAAwZQIwZt7SNQq5I5Na
WRSetokyWveXDoJXP+Qy51aUtR92NGBTFDMdJ+Kav5Ak+A9JaukwAjEAz/f5gpyV
DsHFOpIgA+ebloEoUHOJgYQTB/BBMksRg5aPssVHvSEWcXymhXH0NBh6
-----END CERTIFICATE-----
